LIBRARY bacula_cats.dll
EXPORTS
 
; sql.o
_Z11db_strerrorP4B_DB
_Z11list_dashesP4B_DBPFvPvPKcES1_
_Z11list_resultP3JCRP4B_DBPFvPvPKcES3_11e_list_type
_Z11list_resultPviPPc
_Z12check_limitsP3JCRP4B_DB
_Z14db_debug_printP3JCRP6_iobuf
_Z14db_int_handlerPviPPc
_Z15db_list_handlerPviPPc
_Z16db_int64_handlerPviPPc
_Z18db_strtime_handlerPviPPc
_Z18get_sql_record_maxP3JCRP4B_DB
_Z19split_path_and_fileP3JCRP4B_DBPKc
_Z20check_tables_versionP3JCRP4B_DB
_Z22db_string_list_handlerPviPPc
_Z23db_open_batch_connexionP3JCRP4B_DB
_Z24db_check_max_connectionsP3JCRP4B_DBj
_Z7QueryDBPKciP3JCRP4B_DBPc
_Z8DeleteDBPKciP3JCRP4B_DBPc
_Z8InsertDBPKciP3JCRP4B_DBPc
_Z8UpdateDBPKciP3JCRP4B_DBPc
_ZN9dbid_listC1Ev
_ZN9dbid_listC2Ev
_ZN9dbid_listD1Ev
_ZN9dbid_listD2Ev
 
; sql_create.o
_Z20db_create_job_recordP3JCRP4B_DBP7JOB_DBR
_Z21db_create_path_recordP3JCRP4B_DBP8ATTR_DBR
_Z21db_create_pool_recordP3JCRP4B_DBP8POOL_DBR
_Z22db_create_media_recordP3JCRP4B_DBP9MEDIA_DBR
_Z23db_create_client_recordP3JCRP4B_DBP10CLIENT_DBR
_Z23db_create_device_recordP3JCRP4B_DBP10DEVICE_DBR
_Z23db_disable_batch_insertb
_Z24db_create_base_file_listP3JCRP4B_DBPc
_Z24db_create_counter_recordP3JCRP4B_DBP11COUNTER_DBR
_Z24db_create_fileset_recordP3JCRP4B_DBP11FILESET_DBR
_Z24db_create_storage_recordP3JCRP4B_DBP11STORAGE_DBR
_Z25db_create_jobmedia_recordP3JCRP4B_DBP12JOBMEDIA_DBR
_Z26db_create_mediatype_recordP3JCRP4B_DBP13MEDIATYPE_DBR
_Z27db_create_attributes_recordP3JCRP4B_DBP8ATTR_DBR
_Z27db_write_batch_file_recordsP3JCR
_Z31db_create_restore_object_recordP3JCRP4B_DBP11ROBJECT_DBR
_Z32db_create_file_attributes_recordP3JCRP4B_DBP8ATTR_DBR
_Z37db_commit_base_file_attributes_recordP3JCRP4B_DB
_Z37db_create_base_file_attributes_recordP3JCRP4B_DBP8ATTR_DBR
_Z38db_create_batch_file_attributes_recordP3JCRP4B_DBP8ATTR_DBR
_ZN8POOL_MEMD1Ev
 
; sql_delete.o
_Z21db_delete_pool_recordP3JCRP4B_DBP8POOL_DBR
_Z21db_purge_media_recordP3JCRP4B_DBP9MEDIA_DBR
_Z22db_delete_media_recordP3JCRP4B_DBP9MEDIA_DBR
 
; sql_find.o
_Z18db_find_last_jobidP3JCRP4B_DBPKcP7JOB_DBR
_Z19db_find_next_volumeP3JCRP4B_DBibP9MEDIA_DBR
_Z22db_find_job_start_timeP3JCRP4B_DBP7JOB_DBRPPcS5_
_Z24db_find_failed_job_sinceP3JCRP4B_DBP7JOB_DBRPcRi
_Z27db_find_last_job_start_timeP3JCRP4B_DBP7JOB_DBRPPcS5_i
 
; sql_get.o
_Z15db_get_pool_idsP3JCRP4B_DBPiPPj
_Z16db_get_file_listP3JCRP4B_DBPcbbPFiPviPS3_ES4_
_Z16db_get_media_idsP3JCRP4B_DBP9MEDIA_DBRPiPPj
_Z17db_get_base_jobidP3JCRP4B_DBP7JOB_DBRPj
_Z17db_get_client_idsP3JCRP4B_DBPiPPj
_Z17db_get_job_recordP3JCRP4B_DBP7JOB_DBR
_Z18db_get_path_recordP3JCRP4B_DB
_Z18db_get_pool_recordP3JCRP4B_DBP8POOL_DBR
_Z18db_get_query_dbidsP3JCRP4B_DBR8POOL_MEMR9dbid_list
_Z19db_get_media_recordP3JCRP4B_DBP9MEDIA_DBR
_Z19db_get_pool_numvolsP3JCRP4B_DBP8POOL_DBR
_Z20db_get_client_recordP3JCRP4B_DBP10CLIENT_DBR
_Z20db_get_volume_jobidsP3JCRP4B_DBP9MEDIA_DBRP11db_list_ctx
_Z21db_get_base_file_listP3JCRP4B_DBbPFiPviPPcES3_
_Z21db_get_counter_recordP3JCRP4B_DBP11COUNTER_DBR
_Z21db_get_fileset_recordP3JCRP4B_DBP11FILESET_DBR
_Z22db_accurate_get_jobidsP3JCRP4B_DBP7JOB_DBRP11db_list_ctx
_Z23db_get_job_volume_namesP3JCRP4B_DBjPPc
_Z23db_get_num_pool_recordsP3JCRP4B_DB
_Z23db_get_used_base_jobidsP3JCRP4B_DBPcP11db_list_ctx
_Z24db_get_num_media_recordsP3JCRP4B_DB
_Z27db_get_restoreobject_recordP3JCRP4B_DBP11ROBJECT_DBR
_Z28db_free_restoreobject_recordP3JCRP11ROBJECT_DBR
_Z28db_get_job_volume_parametersP3JCRP4B_DBjPP10VOL_PARAMS
_Z29db_get_file_attributes_recordP3JCRP4B_DBPcP7JOB_DBRP8FILE_DBR
_ZN8POOL_MEMD1Ev
 
; sql_list.o
_Z17db_list_sql_queryP3JCRP4B_DBPKcPFvPvS4_ES5_i11e_list_type
_Z18db_list_job_totalsP3JCRP4B_DBP7JOB_DBRPFvPvPKcES5_
_Z19db_list_job_recordsP3JCRP4B_DBP7JOB_DBRPFvPvPKcES5_11e_list_type
_Z20db_list_pool_recordsP3JCRP4B_DBP8POOL_DBRPFvPvPKcES5_11e_list_type
_Z21db_list_files_for_jobP3JCRP4B_DBjPFvPvPKcES3_
_Z21db_list_media_recordsP3JCRP4B_DBP9MEDIA_DBRPFvPvPKcES5_11e_list_type
_Z22db_list_client_recordsP3JCRP4B_DBPFvPvPKcES3_11e_list_type
_Z22db_list_copies_recordsP3JCRP4B_DBjPcPFvPvPKcES4_11e_list_type
_Z22db_list_joblog_recordsP3JCRP4B_DBjPFvPvPKcES3_11e_list_type
_Z23db_list_restore_objectsP3JCRP4B_DBP11ROBJECT_DBRPFvPvPKcES5_11e_list_type
_Z24db_list_jobmedia_recordsP3JCRP4B_DBjPFvPvPKcES3_11e_list_type
_Z26db_list_base_files_for_jobP3JCRP4B_DBjPFvPvPKcES3_
_ZN8POOL_MEMD1Ev
 
; sql_update.o
_Z15db_update_statsP3JCRP4B_DBx
_Z19db_mark_file_recordP3JCRP4B_DByj
_Z21db_update_pool_recordP3JCRP4B_DBP8POOL_DBR
_Z22db_update_media_recordP3JCRP4B_DBP9MEDIA_DBR
_Z23db_update_client_recordP3JCRP4B_DBP10CLIENT_DBR
_Z24db_make_inchanger_uniqueP3JCRP4B_DBP9MEDIA_DBR
_Z24db_update_counter_recordP3JCRP4B_DBP11COUNTER_DBR
_Z24db_update_job_end_recordP3JCRP4B_DBP7JOB_DBR
_Z24db_update_media_defaultsP3JCRP4B_DBP9MEDIA_DBR
_Z24db_update_storage_recordP3JCRP4B_DBP11STORAGE_DBR
_Z26db_update_job_start_recordP3JCRP4B_DBP7JOB_DBR
_Z28db_add_digest_to_file_recordP3JCRP4B_DByPci
 
; bvfs.o
_Z15bvfs_parent_dirPc
_Z17bvfs_basename_dirPc
_Z17bvfs_update_cacheP3JCRP4B_DB
_Z20build_ls_files_queryP4B_DBR8POOL_MEMPKcS4_S4_xx
_Z20bvfs_update_fv_cacheP3JCRP4B_DBPc
_Z32bvfs_update_path_hierarchy_cacheP3JCRP4B_DBPc
_ZN4Bvfs10set_jobidsEPc
_ZN4Bvfs11clear_cacheEv
_ZN4Bvfs11escape_listEP5alist
_ZN4Bvfs11get_volumesEy
_ZN4Bvfs12_handle_pathEPviPPc
_ZN4Bvfs12filter_jobidEv
_ZN4Bvfs12update_cacheEv
_ZN4Bvfs15fv_update_cacheEv
_ZN4Bvfs15ls_special_dirsEv
_ZN4Bvfs16fv_get_big_filesExxi
_ZN4Bvfs17drop_restore_listEPc
_ZN4Bvfs20compute_restore_listEPcS0_S0_S0_
_ZN4Bvfs20insert_missing_deltaEPcPx
_ZN4Bvfs21fv_get_size_and_countExPxS0_
_ZN4Bvfs21get_all_file_versionsEjyPKc
_ZN4Bvfs24fv_update_size_and_countExxx
_ZN4Bvfs25fv_compute_size_and_countExPxS0_
_ZN4Bvfs29fv_get_current_size_and_countExPxS0_
_ZN4Bvfs6ch_dirEPKc
_ZN4Bvfs7ls_dirsEv
_ZN4Bvfs8get_rootEv
_ZN4Bvfs8ls_filesEv
_ZN4Bvfs9set_jobidEj
_ZN4BvfsC1EP3JCRP4B_DB
_ZN4BvfsC2EP3JCRP4B_DB
_ZN4BvfsD0Ev
_ZN4BvfsD1Ev
_ZN4BvfsD2Ev
_ZN8POOL_MEMD1Ev
 
; sql_glue.o
_Z11db_get_typeP4B_DB
_Z12db_sql_queryP4B_DBPKcPFiPviPPcES3_
_Z12db_sql_queryP4B_DBPKci
_Z12sql_num_rowsP4B_DB
_Z12sql_strerrorP4B_DB
_Z13sql_batch_endP3JCRP4B_DBPKc
_Z13sql_data_seekP4B_DBi
_Z13sql_fetch_rowP4B_DB
_Z14sql_field_seekP4B_DBi
_Z14sql_num_fieldsP4B_DB
_Z15sql_batch_startP3JCRP4B_DB
_Z15sql_fetch_fieldP4B_DB
_Z15sql_free_resultP4B_DB
_Z16db_big_sql_queryP4B_DBPKcPFiPviPPcES3_
_Z16db_escape_objectP3JCRP4B_DBPci
_Z16db_escape_stringP3JCRP4B_DBPcS3_i
_Z16db_open_databaseP3JCRP4B_DB
_Z16sql_batch_insertP3JCRP4B_DBP8ATTR_DBR
_Z17db_close_databaseP3JCRP4B_DB
_Z17db_get_type_indexP4B_DB
_Z17db_match_databaseP4B_DBPKcS2_S2_i
_Z17db_thread_cleanupP4B_DB
_Z17sql_affected_rowsP4B_DB
_Z18db_end_transactionP3JCRP4B_DB
_Z18db_unescape_objectP3JCRP4B_DBPciPS3_Pi
_Z20db_start_transactionP3JCRP4B_DB
_Z20sql_field_is_numericP4B_DBi
_Z21sql_field_is_not_nullP4B_DBi
_Z25sql_insert_autokey_recordP4B_DBPKcS2_
_Z28db_clone_database_connectionP4B_DBP3JCRb
_Z9sql_queryP4B_DBPKci
 
; cats.o
_ZN4B_DB10_db_unlockEPKci
_ZN4B_DB11db_get_typeEv
_ZN4B_DB12db_sql_queryEPKci
_ZN4B_DB15print_lock_infoEP6_iobuf
_ZN4B_DB17db_match_databaseEPKcS1_S1_i
_ZN4B_DB28db_clone_database_connectionEP3JCRb
_ZN4B_DB8_db_lockEPKci
 
; postgresql.o
_Z16db_init_databaseP3JCRPKcS2_S2_S2_S2_iS2_bb
_ZN15B_DB_POSTGRESQL12db_sql_queryEPKcPFiPviPPcES2_
_ZN15B_DB_POSTGRESQL12sql_strerrorEv
_ZN15B_DB_POSTGRESQL13sql_batch_endEP3JCRPKc
_ZN15B_DB_POSTGRESQL13sql_data_seekEi
_ZN15B_DB_POSTGRESQL13sql_fetch_rowEv
_ZN15B_DB_POSTGRESQL15sql_batch_startEP3JCR
_ZN15B_DB_POSTGRESQL15sql_fetch_fieldEv
_ZN15B_DB_POSTGRESQL15sql_free_resultEv
_ZN15B_DB_POSTGRESQL16db_big_sql_queryEPKcPFiPviPPcES2_
_ZN15B_DB_POSTGRESQL16db_escape_objectEP3JCRPci
_ZN15B_DB_POSTGRESQL16db_escape_stringEP3JCRPcS2_i
_ZN15B_DB_POSTGRESQL16db_open_databaseEP3JCR
_ZN15B_DB_POSTGRESQL16sql_batch_insertEP3JCRP8ATTR_DBR
_ZN15B_DB_POSTGRESQL17db_close_databaseEP3JCR
_ZN15B_DB_POSTGRESQL17db_thread_cleanupEv
_ZN15B_DB_POSTGRESQL17sql_affected_rowsEv
_ZN15B_DB_POSTGRESQL18db_end_transactionEP3JCR
_ZN15B_DB_POSTGRESQL18db_unescape_objectEP3JCRPciPS2_Pi
_ZN15B_DB_POSTGRESQL20db_start_transactionEP3JCR
_ZN15B_DB_POSTGRESQL20sql_field_is_numericEi
_ZN15B_DB_POSTGRESQL21sql_field_is_not_nullEi
_ZN15B_DB_POSTGRESQL25sql_insert_autokey_recordEPKcS1_
_ZN15B_DB_POSTGRESQL9sql_queryEPKci
_ZN15B_DB_POSTGRESQLC1EP3JCRPKcS3_S3_S3_S3_iS3_bb
_ZN15B_DB_POSTGRESQLC2EP3JCRPKcS3_S3_S3_S3_iS3_bb
_ZN15B_DB_POSTGRESQLD0Ev
_ZN15B_DB_POSTGRESQLD1Ev
_ZN15B_DB_POSTGRESQLD2Ev
_ZN4B_DB16db_big_sql_queryEPKcPFiPviPPcES2_
_ZN4B_DBD0Ev
_ZN4B_DBD1Ev
_ZN9B_DB_PRIVD0Ev
_ZN9B_DB_PRIVD1Ev
 
client_backups DATA
list_pool DATA
drop_deltabs DATA
create_deltabs DATA
sel_JobMedia DATA
uar_list_jobs DATA
uar_file DATA
uar_count_files DATA
uar_sel_files DATA
uar_del_temp DATA
uar_del_temp1 DATA
uar_create_temp DATA
uar_create_temp1 DATA
uar_last_full DATA
uar_full DATA
uar_inc DATA
uar_list_temp DATA
uar_sel_all_temp1 DATA
uar_sel_fileset DATA
uar_jobid_fileindex DATA
uar_dif DATA
uar_sel_all_temp DATA
uar_count_files DATA
uar_jobids_fileindex DATA
uar_jobid_fileindex_from_dir DATA
uar_jobid_fileindex_from_table DATA
cleanup_created_job DATA
cleanup_running_job DATA
get_restore_objects DATA
get_restore_objects DATA
uar_sel_filesetid DATA
create_delindex DATA
expired_volumes DATA
uap_upgrade_copies_oldest_job DATA
uar_print_jobs DATA
get_restore_objects DATA
uar_sel_jobid_temp DATA
